target datalayout = "e-m:e-p270:32:32-p271:32:32-p272:64:64-i64:64-i128:128-f80:128-n8:16:32:64-S128"
target triple = "x86_64-pc-linux-gnu"

%struct.mausb_header = type { i8, i8, i16, i16, i8, i8, i8, %union.anon }
%union.anon = type { %struct.anon }
%struct.anon = type { i8, %union.anon.0, i32, i8, %union.anon.1, i32, i32 }
%union.anon.0 = type { i16 }
%union.anon.1 = type { i32 }
%struct._urb_info_t = type { i16, i16, i8, i32, i8, i32, i8, i8, i8, i32, ptr, ptr }

; Function Attrs: nounwind null_pointer_is_valid sspstrong uwtable
define internal signext i8 @mausb_tx_type(ptr noundef %0) #0 {
  %2 = alloca ptr, align 8
  store ptr %0, ptr %2, align 8
  %3 = load ptr, ptr %2, align 8
  %4 = getelementptr inbounds nuw %struct.mausb_header, ptr %3, i32 0, i32 7
  %5 = getelementptr inbounds nuw %struct.anon, ptr %4, i32 0, i32 0
  %6 = load i8, ptr %5, align 4
  %7 = zext i8 %6 to i32
  %8 = ashr i32 %7, 2
  %9 = and i32 %8, 24
  %10 = trunc i32 %9 to i8
  ret i8 %10
}

; Function Attrs: null_pointer_is_valid sspstrong uwtable
define internal zeroext i1 @mausb_is_setup_response(ptr noundef %0) #1 {
  %2 = alloca i1, align 1
  %3 = alloca ptr, align 8
  store ptr %0, ptr %3, align 8
  %4 = load ptr, ptr %3, align 8
  %5 = getelementptr inbounds nuw %struct.mausb_header, ptr %4, i32 0, i32 1
  %6 = load i8, ptr %5, align 1
  %7 = zext i8 %6 to i32
  %8 = icmp eq i32 129, %7
  br i1 %8, label %9, label %18

9:                                                ; preds = %1
  %10 = load ptr, ptr %3, align 8
  %11 = call zeroext i1 @mausb_is_from_host(ptr noundef %10)
  br i1 %11, label %18, label %12

12:                                               ; preds = %9
  %13 = load ptr, ptr %3, align 8
  %14 = call signext i8 @mausb_tx_type(ptr noundef %13)
  %15 = sext i8 %14 to i32
  %16 = icmp eq i32 0, %15
  br i1 %16, label %17, label %18

17:                                               ; preds = %12
  store i1 true, ptr %2, align 1
  br label %19

18:                                               ; preds = %12, %9, %1
  store i1 false, ptr %2, align 1
  br label %19

19:                                               ; preds = %18, %17
  %20 = load i1, ptr %2, align 1
  ret i1 %20
}

; Function Attrs: null_pointer_is_valid sspstrong uwtable
define internal zeroext i1 @mausb_has_setup_data(ptr noundef %0) #1 {
  %2 = alloca i1, align 1
  %3 = alloca ptr, align 8
  store ptr %0, ptr %3, align 8
  %4 = load ptr, ptr %3, align 8
  %5 = getelementptr inbounds nuw %struct.mausb_header, ptr %4, i32 0, i32 1
  %6 = load i8, ptr %5, align 1
  %7 = zext i8 %6 to i32
  %8 = icmp eq i32 128, %7
  br i1 %8, label %9, label %24

9:                                                ; preds = %1
  %10 = load ptr, ptr %3, align 8
  %11 = call zeroext i1 @mausb_is_from_host(ptr noundef %10)
  br i1 %11, label %12, label %24

12:                                               ; preds = %9
  %13 = load ptr, ptr %3, align 8
  %14 = getelementptr inbounds nuw %struct.mausb_header, ptr %13, i32 0, i32 7
  %15 = getelementptr inbounds nuw %struct.anon, ptr %14, i32 0, i32 2
  %16 = load i32, ptr %15, align 4
  %17 = icmp eq i32 0, %16
  br i1 %17, label %18, label %24

18:                                               ; preds = %12
  %19 = load ptr, ptr %3, align 8
  %20 = call signext i8 @mausb_tx_type(ptr noundef %19)
  %21 = sext i8 %20 to i32
  %22 = icmp eq i32 0, %21
  br i1 %22, label %23, label %24

23:                                               ; preds = %18
  store i1 true, ptr %2, align 1
  br label %25

24:                                               ; preds = %18, %12, %9, %1
  store i1 false, ptr %2, align 1
  br label %25

25:                                               ; preds = %24, %23
  %26 = load i1, ptr %2, align 1
  ret i1 %26
}

; Function Attrs: nounwind null_pointer_is_valid sspstrong uwtable
define hidden zeroext i8 @mausb_ep_handle_ep_d(i16 noundef zeroext %0) #0 {
  %2 = alloca i16, align 2
  store i16 %0, ptr %2, align 2
  %3 = load i16, ptr %2, align 2
  %4 = zext i16 %3 to i32
  %5 = and i32 %4, 1
  %6 = ashr i32 %5, 0
  %7 = trunc i32 %6 to i8
  ret i8 %7
}

; Function Attrs: nounwind null_pointer_is_valid sspstrong uwtable
define hidden zeroext i8 @mausb_ep_handle_ep_num(i16 noundef zeroext %0) #0 {
  %2 = alloca i16, align 2
  store i16 %0, ptr %2, align 2
  %3 = load i16, ptr %2, align 2
  %4 = zext i16 %3 to i32
  %5 = and i32 %4, 30
  %6 = ashr i32 %5, 1
  %7 = trunc i32 %6 to i8
  ret i8 %7
}

; Function Attrs: nounwind null_pointer_is_valid sspstrong uwtable
define hidden zeroext i1 @mausb_is_from_host(ptr noundef %0) #0 {
  %2 = alloca ptr, align 8
  store ptr %0, ptr %2, align 8
  %3 = load ptr, ptr %2, align 8
  %4 = getelementptr inbounds nuw %struct.mausb_header, ptr %3, i32 0, i32 0
  %5 = load i8, ptr %4, align 4
  %6 = zext i8 %5 to i32
  %7 = and i32 16, %6
  %8 = icmp ne i32 %7, 0
  ret i1 %8
}

; Function Attrs: nounwind null_pointer_is_valid sspstrong uwtable
define hidden zeroext i8 @mausb_ep_handle_dev_addr(i16 noundef zeroext %0) #0 {
  %2 = alloca i16, align 2
  store i16 %0, ptr %2, align 2
  %3 = load i16, ptr %2, align 2
  %4 = zext i16 %3 to i32
  %5 = and i32 %4, 4064
  %6 = ashr i32 %5, 5
  %7 = trunc i32 %6 to i8
  ret i8 %7
}

; Function Attrs: nounwind null_pointer_is_valid sspstrong uwtable
define hidden zeroext i8 @mausb_ep_handle_bus_num(i16 noundef zeroext %0) #0 {
  %2 = alloca i16, align 2
  store i16 %0, ptr %2, align 2
  %3 = load i16, ptr %2, align 2
  %4 = zext i16 %3 to i32
  %5 = and i32 %4, 61440
  %6 = ashr i32 %5, 12
  %7 = trunc i32 %6 to i8
  ret i8 %7
}

; Function Attrs: nounwind null_pointer_is_valid sspstrong uwtable
define internal zeroext i1 @mausb_is_transfer_req(ptr noundef %0) #0 {
  %2 = alloca ptr, align 8
  store ptr %0, ptr %2, align 8
  %3 = load ptr, ptr %2, align 8
  %4 = getelementptr inbounds nuw %struct.mausb_header, ptr %3, i32 0, i32 1
  %5 = load i8, ptr %4, align 1
  %6 = zext i8 %5 to i32
  %7 = icmp eq i32 128, %6
  ret i1 %7
}

; Function Attrs: null_pointer_is_valid sspstrong uwtable
define hidden void @mausb_set_urb_info(ptr noundef %0, ptr noundef %1) #1 {
  %3 = alloca ptr, align 8
  %4 = alloca ptr, align 8
  store ptr %0, ptr %3, align 8
  store ptr %1, ptr %4, align 8
  %5 = load ptr, ptr %4, align 8
  %6 = call zeroext i1 @mausb_is_transfer_req(ptr noundef %5)
  %7 = load ptr, ptr %3, align 8
  %8 = getelementptr inbounds nuw %struct._urb_info_t, ptr %7, i32 0, i32 6
  %9 = zext i1 %6 to i8
  store i8 %9, ptr %8, align 4
  %10 = load ptr, ptr %4, align 8
  %11 = getelementptr inbounds nuw %struct.mausb_header, ptr %10, i32 0, i32 3
  %12 = load i16, ptr %11, align 4
  %13 = call zeroext i8 @mausb_ep_handle_bus_num(i16 noundef zeroext %12)
  %14 = zext i8 %13 to i16
  %15 = load ptr, ptr %3, align 8
  %16 = getelementptr inbounds nuw %struct._urb_info_t, ptr %15, i32 0, i32 0
  store i16 %14, ptr %16, align 8
  %17 = load ptr, ptr %4, align 8
  %18 = getelementptr inbounds nuw %struct.mausb_header, ptr %17, i32 0, i32 3
  %19 = load i16, ptr %18, align 4
  %20 = call zeroext i8 @mausb_ep_handle_dev_addr(i16 noundef zeroext %19)
  %21 = zext i8 %20 to i16
  %22 = load ptr, ptr %3, align 8
  %23 = getelementptr inbounds nuw %struct._urb_info_t, ptr %22, i32 0, i32 1
  store i16 %21, ptr %23, align 2
  %24 = load ptr, ptr %4, align 8
  %25 = call zeroext i1 @mausb_is_from_host(ptr noundef %24)
  %26 = zext i1 %25 to i32
  %27 = load ptr, ptr %3, align 8
  %28 = getelementptr inbounds nuw %struct._urb_info_t, ptr %27, i32 0, i32 3
  store i32 %26, ptr %28, align 8
  %29 = load ptr, ptr %4, align 8
  %30 = getelementptr inbounds nuw %struct.mausb_header, ptr %29, i32 0, i32 3
  %31 = load i16, ptr %30, align 4
  %32 = call zeroext i8 @mausb_ep_handle_ep_num(i16 noundef zeroext %31)
  %33 = load ptr, ptr %3, align 8
  %34 = getelementptr inbounds nuw %struct._urb_info_t, ptr %33, i32 0, i32 2
  store i8 %32, ptr %34, align 4
  %35 = load ptr, ptr %4, align 8
  %36 = getelementptr inbounds nuw %struct.mausb_header, ptr %35, i32 0, i32 3
  %37 = load i16, ptr %36, align 4
  %38 = call zeroext i8 @mausb_ep_handle_ep_d(i16 noundef zeroext %37)
  %39 = icmp ne i8 %38, 0
  br i1 %39, label %40, label %47

40:                                               ; preds = %2
  %41 = load ptr, ptr %3, align 8
  %42 = getelementptr inbounds nuw %struct._urb_info_t, ptr %41, i32 0, i32 2
  %43 = load i8, ptr %42, align 4
  %44 = zext i8 %43 to i32
  %45 = or i32 %44, 128
  %46 = trunc i32 %45 to i8
  store i8 %46, ptr %42, align 4
  br label %47

47:                                               ; preds = %40, %2
  %48 = load ptr, ptr %4, align 8
  %49 = call zeroext i1 @mausb_has_setup_data(ptr noundef %48)
  br i1 %49, label %53, label %50

50:                                               ; preds = %47
  %51 = load ptr, ptr %4, align 8
  %52 = call zeroext i1 @mausb_is_setup_response(ptr noundef %51)
  br label %53

53:                                               ; preds = %50, %47
  %54 = phi i1 [ true, %47 ], [ %52, %50 ]
  %55 = load ptr, ptr %3, align 8
  %56 = getelementptr inbounds nuw %struct._urb_info_t, ptr %55, i32 0, i32 7
  %57 = zext i1 %54 to i8
  store i8 %57, ptr %56, align 1
  %58 = load ptr, ptr %4, align 8
  %59 = call signext i8 @mausb_tx_type(ptr noundef %58)
  %60 = sext i8 %59 to i32
  switch i32 %60, label %73 [
    i32 0, label %61
    i32 8, label %64
    i32 16, label %67
    i32 24, label %70
  ]

61:                                               ; preds = %53
  %62 = load ptr, ptr %3, align 8
  %63 = getelementptr inbounds nuw %struct._urb_info_t, ptr %62, i32 0, i32 4
  store i8 2, ptr %63, align 4
  br label %76

64:                                               ; preds = %53
  %65 = load ptr, ptr %3, align 8
  %66 = getelementptr inbounds nuw %struct._urb_info_t, ptr %65, i32 0, i32 4
  store i8 0, ptr %66, align 4
  br label %76

67:                                               ; preds = %53
  %68 = load ptr, ptr %3, align 8
  %69 = getelementptr inbounds nuw %struct._urb_info_t, ptr %68, i32 0, i32 4
  store i8 3, ptr %69, align 4
  br label %76

70:                                               ; preds = %53
  %71 = load ptr, ptr %3, align 8
  %72 = getelementptr inbounds nuw %struct._urb_info_t, ptr %71, i32 0, i32 4
  store i8 1, ptr %72, align 4
  br label %76

73:                                               ; preds = %53
  %74 = load ptr, ptr %3, align 8
  %75 = getelementptr inbounds nuw %struct._urb_info_t, ptr %74, i32 0, i32 4
  store i8 -1, ptr %75, align 4
  br label %76

76:                                               ; preds = %73, %70, %67, %64, %61
  ret void
}