; Function Attrs: mustprogress nofree norecurse nosync nounwind null_pointer_is_valid sspstrong willreturn memory(argmem: readwrite) uwtable
define hidden void @mausb_set_urb_info(ptr noundef writeonly captures(none) initializes((0, 5), (8, 12), (20, 22)) %0, ptr noundef readonly captures(none) %1) local_unnamed_addr #2 {
  %3 = getelementptr i8, ptr %1, i64 1
  %.val = load i8, ptr %3, align 1
  %4 = icmp eq i8 %.val, -128
  %5 = getelementptr inbounds nuw i8, ptr %0, i64 20
  %6 = zext i1 %4 to i8
  store i8 %6, ptr %5, align 4
  %7 = getelementptr inbounds nuw i8, ptr %1, i64 4
  %8 = load i16, ptr %7, align 4
  %9 = lshr i16 %8, 12
  store i16 %9, ptr %0, align 8
  %10 = load i16, ptr %7, align 4
  %11 = lshr i16 %10, 5
  %12 = and i16 %11, 127
  %13 = getelementptr inbounds nuw i8, ptr %0, i64 2
  store i16 %12, ptr %13, align 2
  %14 = load i8, ptr %1, align 4
  %15 = lshr i8 %14, 4
  %.lobit = and i8 %15, 1
  %16 = zext nneg i8 %.lobit to i32
  %17 = getelementptr inbounds nuw i8, ptr %0, i64 8
  store i32 %16, ptr %17, align 8
  %18 = load i16, ptr %7, align 4
  %19 = trunc i16 %18 to i8
  %20 = lshr i8 %19, 1
  %21 = and i8 %20, 15
  %22 = getelementptr inbounds nuw i8, ptr %0, i64 4
  store i8 %21, ptr %22, align 4
  %23 = load i16, ptr %7, align 4
  %24 = and i16 %23, 1
  %.not = icmp eq i16 %24, 0
  br i1 %.not, label %27, label %25

25:                                               ; preds = %2
  %26 = or disjoint i8 %21, -128
  store i8 %26, ptr %22, align 4
  br label %27

27:                                               ; preds = %25, %2
  %28 = load i8, ptr %3, align 1
  switch i8 %28, label %mausb_has_setup_data.exit.thread26 [
    i8 -128, label %29
    i8 -127, label %40
  ]

29:                                               ; preds = %27
  %30 = load i8, ptr %1, align 4
  %31 = and i8 %30, 16
  %.not.i = icmp eq i8 %31, 0
  br i1 %.not.i, label %mausb_has_setup_data.exit.thread26, label %32

32:                                               ; preds = %29
  %33 = getelementptr inbounds nuw i8, ptr %1, i64 16
  %34 = load i32, ptr %33, align 4
  %35 = icmp eq i32 %34, 0
  br i1 %35, label %36, label %mausb_has_setup_data.exit.thread26

36:                                               ; preds = %32
  %37 = getelementptr i8, ptr %1, i64 12
  %.val.i = load i8, ptr %37, align 4
  %38 = and i8 %.val.i, 96
  %39 = icmp eq i8 %38, 0
  br i1 %39, label %mausb_has_setup_data.exit.thread, label %mausb_has_setup_data.exit.thread26

40:                                               ; preds = %27
  %41 = load i8, ptr %1, align 4
  %42 = and i8 %41, 16
  %.not.i23 = icmp eq i8 %42, 0
  br i1 %.not.i23, label %43, label %mausb_has_setup_data.exit.thread26

43:                                               ; preds = %40
  %44 = getelementptr i8, ptr %1, i64 12
  %.val.i24 = load i8, ptr %44, align 4
  %45 = and i8 %.val.i24, 96
  %46 = icmp eq i8 %45, 0
  br i1 %46, label %mausb_has_setup_data.exit.thread, label %mausb_has_setup_data.exit.thread26

mausb_has_setup_data.exit.thread26:               ; preds = %27, %29, %32, %36, %43, %40
  br label %mausb_has_setup_data.exit.thread

mausb_has_setup_data.exit.thread:                 ; preds = %mausb_has_setup_data.exit.thread26, %43, %36
  %47 = phi i8 [ 1, %36 ], [ 0, %mausb_has_setup_data.exit.thread26 ], [ 1, %43 ]
  %48 = getelementptr inbounds nuw i8, ptr %0, i64 21
  store i8 %47, ptr %48, align 1
  %49 = getelementptr i8, ptr %1, i64 12
  %.val21 = load i8, ptr %49, align 4
  %50 = lshr i8 %.val21, 2
  %51 = and i8 %50, 24
  %switch.shiftamt = zext nneg i8 %51 to i32
  %switch.downshift = lshr i32 16973826, %switch.shiftamt
  %switch.masked = trunc i32 %switch.downshift to i8
  %52 = getelementptr inbounds nuw i8, ptr %0, i64 12
  store i8 %switch.masked, ptr %52, align 4
  ret void
}